target datalayout = "e-m:e-p270:32:32-p271:32:32-p272:64:64-i64:64-i128:128-f80:128-n8:16:32:64-S128"
target triple = "x86_64-unknown-linux-gnu"

; Function Attrs: mustprogress uwtable
define hidden void @_ZN7datalog11rel_context22inherit_predicate_kindEP9func_declS2_(ptr noundef nonnull align 8 dereferenceable(432) %this, ptr noundef %new_pred, ptr noundef %orig_pred) unnamed_addr #4 align 2 {
entry:
  %this.addr = alloca ptr, align 8
  %new_pred.addr = alloca ptr, align 8
  %orig_pred.addr = alloca ptr, align 8
  %target_kind = alloca i32, align 4
  store ptr %this, ptr %this.addr, align 8
  store ptr %new_pred, ptr %new_pred.addr, align 8
  store ptr %orig_pred, ptr %orig_pred.addr, align 8
  %this1 = load ptr, ptr %this.addr, align 8
  %0 = load ptr, ptr %orig_pred.addr, align 8
  %tobool = icmp ne ptr %0, null
  br i1 %tobool, label %if.then, label %if.end7

if.then:                                          ; preds = %entry
  %vtable = load ptr, ptr %this1, align 8
  %vfn = getelementptr inbounds ptr, ptr %vtable, i64 24
  %1 = load ptr, ptr %vfn, align 8
  %call = call noundef nonnull align 8 dereferenceable(200) ptr %1(ptr noundef nonnull align 8 dereferenceable(432) %this1)
  %2 = load ptr, ptr %orig_pred.addr, align 8
  %call2 = call noundef i32 @_ZN7datalog16relation_manager28get_requested_predicate_kindEP9func_decl(ptr noundef nonnull align 8 dereferenceable(200) %call, ptr noundef %2)
  store i32 %call2, ptr %target_kind, align 4
  %3 = load i32, ptr %target_kind, align 4
  %cmp = icmp ne i32 %3, -1
  br i1 %cmp, label %if.then3, label %if.end

if.then3:                                         ; preds = %if.then
  %vtable4 = load ptr, ptr %this1, align 8
  %vfn5 = getelementptr inbounds ptr, ptr %vtable4, i64 24
  %4 = load ptr, ptr %vfn5, align 8
  %call6 = call noundef nonnull align 8 dereferenceable(200) ptr %4(ptr noundef nonnull align 8 dereferenceable(432) %this1)
  %5 = load ptr, ptr %new_pred.addr, align 8
  %6 = load i32, ptr %target_kind, align 4
  call void @_ZN7datalog16relation_manager18set_predicate_kindEP9func_decli(ptr noundef nonnull align 8 dereferenceable(200) %call6, ptr noundef %5, i32 noundef %6)
  br label %if.end

if.end:                                           ; preds = %if.then3, %if.then
  br label %if.end7

if.end7:                                          ; preds = %if.end, %entry
  ret void
}