; Function Attrs: mustprogress uwtable
define hidden void @_ZN7datalog11rel_context22inherit_predicate_kindEP9func_declS2_(ptr noundef nonnull align 8 dereferenceable(432) %this, ptr noundef %new_pred, ptr noundef %orig_pred) unnamed_addr #3 align 2 {
entry:
  %tobool.not = icmp eq ptr %orig_pred, null
  br i1 %tobool.not, label %if.end7, label %if.then

if.then:                                          ; preds = %entry
  %vtable = load ptr, ptr %this, align 8
  %vfn = getelementptr inbounds i8, ptr %vtable, i64 192
  %0 = load ptr, ptr %vfn, align 8
  %call = tail call noundef nonnull align 8 dereferenceable(200) ptr %0(ptr noundef nonnull align 8 dereferenceable(432) %this)
  %call2 = tail call noundef i32 @_ZN7datalog16relation_manager28get_requested_predicate_kindEP9func_decl(ptr noundef nonnull align 8 dereferenceable(200) %call, ptr noundef nonnull %orig_pred)
  %cmp.not = icmp eq i32 %call2, -1
  br i1 %cmp.not, label %if.end7, label %if.then3

if.then3:                                         ; preds = %if.then
  %vtable4 = load ptr, ptr %this, align 8
  %vfn5 = getelementptr inbounds i8, ptr %vtable4, i64 192
  %1 = load ptr, ptr %vfn5, align 8
  %call6 = tail call noundef nonnull align 8 dereferenceable(200) ptr %1(ptr noundef nonnull align 8 dereferenceable(432) %this)
  tail call void @_ZN7datalog16relation_manager18set_predicate_kindEP9func_decli(ptr noundef nonnull align 8 dereferenceable(200) %call6, ptr noundef %new_pred, i32 noundef %call2)
  br label %if.end7

if.end7:                                          ; preds = %if.then, %if.then3, %entry
  ret void
}